target datalayout = "e-m:e-p270:32:32-p271:32:32-p272:64:64-i64:64-i128:128-f80:128-n8:16:32:64-S128"
target triple = "x86_64-pc-linux-gnu"

%"struct.cv::utils::trace::details::Region::LocationStaticStorage" = type { ptr, ptr, ptr, i32, i32 }
%"class.cv::utils::trace::details::Region" = type <{ ptr, i32, [4 x i8] }>
%"class.cv::_OutputArray" = type { %"class.cv::_InputArray" }
%"class.cv::_InputArray" = type { i32, ptr, %"class.cv::Size_" }
%"class.cv::Size_" = type { i32, i32 }

@_ZZN2cv12VideoCapturersERNS_4UMatEE25__cv_trace_location_fn597 = internal constant %"struct.cv::utils::trace::details::Region::LocationStaticStorage" { ptr @_ZZN2cv12VideoCapturersERNS_4UMatEE31__cv_trace_location_extra_fn597, ptr @.str.45, ptr @.str.7, i32 597, i32 1 }, align 8

; Function Attrs: inlinehint mustprogress nounwind uwtable
define linkonce_odr hidden void @_ZN2cv5Size_IiEC2Ev(ptr noundef nonnull align 4 dereferenceable(8) %0) unnamed_addr #7 comdat align 2 {
  %2 = alloca ptr, align 8
  store ptr %0, ptr %2, align 8, !tbaa !140
  %3 = load ptr, ptr %2, align 8
  %4 = getelementptr inbounds nuw %"class.cv::Size_", ptr %3, i32 0, i32 0
  store i32 0, ptr %4, align 4, !tbaa !142
  %5 = getelementptr inbounds nuw %"class.cv::Size_", ptr %3, i32 0, i32 1
  store i32 0, ptr %5, align 4, !tbaa !144
  ret void
}

; Function Attrs: inlinehint mustprogress nounwind uwtable
define linkonce_odr hidden void @_ZN2cv11_InputArray4initEiPKv(ptr noundef nonnull align 8 dereferenceable(24) %0, i32 noundef %1, ptr noundef %2) #7 comdat align 2 {
  %4 = alloca ptr, align 8
  %5 = alloca i32, align 4
  %6 = alloca ptr, align 8
  store ptr %0, ptr %4, align 8, !tbaa !174
  store i32 %1, ptr %5, align 4, !tbaa !39
  store ptr %2, ptr %6, align 8, !tbaa !214
  %7 = load ptr, ptr %4, align 8
  %8 = load i32, ptr %5, align 4, !tbaa !39
  %9 = getelementptr inbounds nuw %"class.cv::_InputArray", ptr %7, i32 0, i32 0
  store i32 %8, ptr %9, align 8, !tbaa !225
  %10 = load ptr, ptr %6, align 8, !tbaa !214
  %11 = getelementptr inbounds nuw %"class.cv::_InputArray", ptr %7, i32 0, i32 1
  store ptr %10, ptr %11, align 8, !tbaa !227
  ret void
}

; Function Attrs: inlinehint mustprogress uwtable
define linkonce_odr hidden void @_ZN2cv11_InputArrayC2Ev(ptr noundef nonnull align 8 dereferenceable(24) %0) unnamed_addr #12 comdat align 2 {
  %2 = alloca ptr, align 8
  store ptr %0, ptr %2, align 8, !tbaa !174
  %3 = load ptr, ptr %2, align 8
  %4 = getelementptr inbounds nuw %"class.cv::_InputArray", ptr %3, i32 0, i32 2
  call void @_ZN2cv5Size_IiEC2Ev(ptr noundef nonnull align 4 dereferenceable(8) %4)
  call void @_ZN2cv11_InputArray4initEiPKv(ptr noundef nonnull align 8 dereferenceable(24) %3, i32 noundef 0, ptr noundef null)
  ret void
}

; Function Attrs: inlinehint mustprogress nounwind uwtable
define linkonce_odr hidden void @_ZN2cv11_InputArrayD2Ev(ptr noundef nonnull align 8 dereferenceable(24) %0) unnamed_addr #7 comdat align 2 {
  %2 = alloca ptr, align 8
  store ptr %0, ptr %2, align 8, !tbaa !174
  ret void
}

; Function Attrs: inlinehint mustprogress uwtable
define linkonce_odr hidden void @_ZN2cv12_OutputArrayC2ERNS_4UMatE(ptr noundef nonnull align 8 dereferenceable(24) %0, ptr noundef nonnull align 8 dereferenceable(80) %1) unnamed_addr #12 comdat align 2 {
  %3 = alloca ptr, align 8
  %4 = alloca ptr, align 8
  store ptr %0, ptr %3, align 8, !tbaa !113
  store ptr %1, ptr %4, align 8, !tbaa !117
  %5 = load ptr, ptr %3, align 8
  call void @_ZN2cv11_InputArrayC2Ev(ptr noundef nonnull align 8 dereferenceable(24) %5)
  %6 = load ptr, ptr %4, align 8, !tbaa !117
  call void @_ZN2cv11_InputArray4initEiPKv(ptr noundef nonnull align 8 dereferenceable(24) %5, i32 noundef 34209792, ptr noundef %6)
  ret void
}

; Function Attrs: mustprogress uwtable
define noundef nonnull align 8 dereferenceable(41) ptr @_ZN2cv12VideoCapturersERNS_4UMatE(ptr noundef nonnull align 8 dereferenceable(41) %0, ptr noundef nonnull align 8 dereferenceable(80) %1) unnamed_addr #4 align 2 personality ptr @__gxx_personality_v0 {
  %3 = alloca ptr, align 8
  %4 = alloca ptr, align 8
  %5 = alloca %"class.cv::utils::trace::details::Region", align 8
  %6 = alloca %"class.cv::_OutputArray", align 8
  %7 = alloca ptr, align 8
  %8 = alloca i32, align 4
  store ptr %0, ptr %3, align 8, !tbaa !18
  store ptr %1, ptr %4, align 8, !tbaa !117
  %9 = load ptr, ptr %3, align 8
  call void @llvm.lifetime.start.p0(i64 16, ptr %5) #3
  call void @_ZN2cv5utils5trace7details6RegionC1ERKNS3_21LocationStaticStorageE(ptr noundef nonnull align 8 dereferenceable(12) %5, ptr noundef nonnull align 8 dereferenceable(32) @_ZZN2cv12VideoCapturersERNS_4UMatEE25__cv_trace_location_fn597)
  call void @llvm.lifetime.start.p0(i64 24, ptr %6) #3
  %10 = load ptr, ptr %4, align 8, !tbaa !117
  invoke void @_ZN2cv12_OutputArrayC2ERNS_4UMatE(ptr noundef nonnull align 8 dereferenceable(24) %6, ptr noundef nonnull align 8 dereferenceable(80) %10)
          to label %11 unwind label %17

11:                                               ; preds = %2
  %12 = load ptr, ptr %9, align 8, !tbaa !20
  %13 = getelementptr inbounds ptr, ptr %12, i64 13
  %14 = load ptr, ptr %13, align 8
  %15 = invoke noundef zeroext i1 %14(ptr noundef nonnull align 8 dereferenceable(41) %9, ptr noundef nonnull align 8 dereferenceable(24) %6)
          to label %16 unwind label %21

16:                                               ; preds = %11
  call void @_ZN2cv11_InputArrayD2Ev(ptr noundef nonnull align 8 dereferenceable(24) %6) #3
  call void @llvm.lifetime.end.p0(i64 24, ptr %6) #3
  call void @_ZN2cv5utils5trace7details6RegionD2Ev(ptr noundef nonnull align 8 dereferenceable(12) %5) #3
  call void @llvm.lifetime.end.p0(i64 16, ptr %5) #3
  ret ptr %9

17:                                               ; preds = %2
  %18 = landingpad { ptr, i32 }
          cleanup
  %19 = extractvalue { ptr, i32 } %18, 0
  store ptr %19, ptr %7, align 8
  %20 = extractvalue { ptr, i32 } %18, 1
  store i32 %20, ptr %8, align 4
  br label %25

21:                                               ; preds = %11
  %22 = landingpad { ptr, i32 }
          cleanup
  %23 = extractvalue { ptr, i32 } %22, 0
  store ptr %23, ptr %7, align 8
  %24 = extractvalue { ptr, i32 } %22, 1
  store i32 %24, ptr %8, align 4
  call void @_ZN2cv11_InputArrayD2Ev(ptr noundef nonnull align 8 dereferenceable(24) %6) #3
  br label %25

25:                                               ; preds = %21, %17
  call void @llvm.lifetime.end.p0(i64 24, ptr %6) #3
  call void @_ZN2cv5utils5trace7details6RegionD2Ev(ptr noundef nonnull align 8 dereferenceable(12) %5) #3
  call void @llvm.lifetime.end.p0(i64 16, ptr %5) #3
  br label %26

26:                                               ; preds = %25
  %27 = load ptr, ptr %7, align 8
  %28 = load i32, ptr %8, align 4
  %29 = insertvalue { ptr, i32 } poison, ptr %27, 0
  %30 = insertvalue { ptr, i32 } %29, i32 %28, 1
  resume { ptr, i32 } %30
}