; Function Attrs: mustprogress uwtable
define noundef nonnull align 8 dereferenceable(41) ptr @_ZN2cv12VideoCapturersERNS_4UMatE(ptr noundef nonnull returned align 8 dereferenceable(41) %0, ptr noundef nonnull align 8 dereferenceable(80) %1) unnamed_addr #3 align 2 personality ptr @__gxx_personality_v0 {
  %3 = alloca %"class.cv::utils::trace::details::Region", align 8
  %4 = alloca %"class.cv::_OutputArray", align 8
  call void @llvm.lifetime.start.p0(i64 16, ptr nonnull %3) #27
  call void @_ZN2cv5utils5trace7details6RegionC1ERKNS3_21LocationStaticStorageE(ptr noundef nonnull align 8 dereferenceable(12) %3, ptr noundef nonnull align 8 dereferenceable(32) @_ZZN2cv12VideoCapturersERNS_4UMatEE25__cv_trace_location_fn597)
  call void @llvm.lifetime.start.p0(i64 24, ptr nonnull %4) #27
  %5 = getelementptr inbounds nuw i8, ptr %4, i64 8
  %6 = getelementptr inbounds nuw i8, ptr %4, i64 16
  store i64 0, ptr %6, align 8
  store i32 34209792, ptr %4, align 8, !tbaa !261
  store ptr %1, ptr %5, align 8, !tbaa !264
  %7 = load ptr, ptr %0, align 8, !tbaa !10
  %8 = getelementptr inbounds nuw i8, ptr %7, i64 104
  %9 = load ptr, ptr %8, align 8
  %10 = invoke noundef zeroext i1 %9(ptr noundef nonnull align 8 dereferenceable(41) %0, ptr noundef nonnull align 8 dereferenceable(24) %4)
          to label %11 unwind label %18

11:                                               ; preds = %2
  call void @llvm.lifetime.end.p0(i64 24, ptr nonnull %4) #27
  %12 = getelementptr inbounds nuw i8, ptr %3, i64 8
  %13 = load i32, ptr %12, align 8, !tbaa !12
  %.not.i = icmp eq i32 %13, 0
  br i1 %.not.i, label %_ZN2cv5utils5trace7details6RegionD2Ev.exit, label %14

14:                                               ; preds = %11
  invoke void @_ZN2cv5utils5trace7details6Region7destroyEv(ptr noundef nonnull align 8 dereferenceable(12) %3)
          to label %_ZN2cv5utils5trace7details6RegionD2Ev.exit unwind label %15

15:                                               ; preds = %14
  %16 = landingpad { ptr, i32 }
          catch ptr null
  %17 = extractvalue { ptr, i32 } %16, 0
  call void @__clang_call_terminate(ptr %17) #26
  unreachable

_ZN2cv5utils5trace7details6RegionD2Ev.exit:       ; preds = %11, %14
  call void @llvm.lifetime.end.p0(i64 16, ptr nonnull %3) #27
  ret ptr %0

18:                                               ; preds = %2
  %19 = landingpad { ptr, i32 }
          cleanup
  call void @llvm.lifetime.end.p0(i64 24, ptr nonnull %4) #27
  call void @_ZN2cv5utils5trace7details6RegionD2Ev(ptr noundef nonnull align 8 dereferenceable(12) %3) #27
  call void @llvm.lifetime.end.p0(i64 16, ptr nonnull %3) #27
  resume { ptr, i32 } %19
}